Vvar ctx=document.querySelector("#myChart").getContext("2d");new Vue({el:"#chart_parent",data:{type:"bar",labels:"Test1, Test2",datasets:[]}});var myChart=new Chart(ctx,{type:"bar",data:{labels:["Test1","Test2"],datasets:[{label:"# of Tests",data:[3,6]}]},options:{responsive:true,scales:{yAxes:[{ticks:{beginAtZero:true}}]}}});
p1
.