Vvar ctx=document.querySelector("#myChart").getContext("2d");Vue.config.delimiters=['[[',']]'];new Vue({el:"#chart_parent",data:{label:"# of Tests",data:[{label:"Test1",data:20},{label:"Test2",data:30}]},methods:{remove_data:function(index){this.data.splice(index,1);},add_data:function(){this.data.push({label:"",data:0})}}});
p1
.